target datalayout = "e-m:e-p270:32:32-p271:32:32-p272:64:64-i64:64-i128:128-f80:128-n8:16:32:64-S128"
target triple = "x86_64-pc-linux-gnu"

%"class.sls::bv_eval" = type <{ ptr, ptr, ptr, %"class.sls::bv_lookahead", %class.bv_util, %"class.sls::bv_fixed", [8 x i8], %class.ptr_vector, %class.random_gen, %"struct.sls::bv_eval::config", %class.svector.7, i32, i32, %class.svector.9, %class.svector.11, %class.scoped_ptr_vector, %"class.sls::bvect", %"class.sls::bvect", %"class.sls::bvect", %"class.sls::bvect", %"class.sls::bvect", %"class.sls::bvect", %"class.sls::bvect", %"class.sls::bvect", %"class.sls::bvect", %"class.sls::bvect", %"class.sls::bvect", %"class.sls::bvect", %"class.sls::bvect", i8, [7 x i8] }>
%"class.sls::bv_lookahead" = type { %class.bv_util, ptr, ptr, ptr, %"struct.sls::bv_lookahead::config", %"struct.sls::bv_lookahead::stats", %"class.sls::bvect", %"class.sls::bvect", %class.ptr_vector, %class.svector.1, %class.vector.3, %class.obj_mark, double, double, %"class.sls::bvect", ptr, ptr, %class.ptr_vector, %class.vector.4, %class.obj_mark, i32, %class.tracked_uint_set, i32, i32 }
%"struct.sls::bv_lookahead::config" = type <{ i8, [7 x i8], double, i32, i32, i8, i8, i8, i8, i32, i32, i32, i32, i8, [3 x i8], i32, i32, i32, i8, [3 x i8], double, double, i8, [7 x i8], double, i8, i8, i8, [5 x i8] }>
%"struct.sls::bv_lookahead::stats" = type { i32, i32, i32, i32, i32, i32 }
%class.svector.1 = type { %class.vector.2 }
%class.vector.2 = type { ptr }
%class.vector.3 = type { ptr }
%class.vector.4 = type { ptr }
%class.obj_mark = type { [8 x i8], %class.bit_vector }
%class.bit_vector = type { i32, i32, ptr }
%class.tracked_uint_set = type { %class.svector.5, %class.svector }
%class.svector.5 = type { %class.vector.6 }
%class.vector.6 = type { ptr }
%class.svector = type { %class.vector }
%class.vector = type { ptr }
%class.bv_util = type { %class.bv_recognizers, ptr, ptr }
%class.bv_recognizers = type { i32 }
%"class.sls::bv_fixed" = type { ptr, ptr, ptr, ptr, ptr }
%class.ptr_vector = type { %class.vector.0 }
%class.vector.0 = type { ptr }
%class.random_gen = type { i32 }
%"struct.sls::bv_eval::config" = type { i32 }
%class.svector.7 = type { %class.vector.8 }
%class.vector.8 = type { ptr }
%class.svector.9 = type { %class.vector.10 }
%class.vector.10 = type { ptr }
%class.svector.11 = type { %class.vector.12 }
%class.vector.12 = type { ptr }
%class.scoped_ptr_vector = type { %class.ptr_vector.13 }
%class.ptr_vector.13 = type { %class.vector.14 }
%class.vector.14 = type { ptr }
%"class.sls::bvect" = type <{ %class.svector, i32, i32, i32, [4 x i8] }>
%"class.sls::bv_valuation" = type { %"class.sls::bvect", %"class.sls::bvect", %"class.sls::bvect", %"class.sls::bvect", %"class.sls::bvect", %"class.sls::bvect", i32, i32, i32, i32, %"class.sls::bvect" }
%class.ast = type { i32, i32, i32, i32 }
%class.app = type { %class.expr, ptr, i32, %struct.app_flags, [0 x ptr] }
%class.expr = type { %class.ast }
%struct.app_flags = type <{ i16, i8, i8 }>
%class.anon.83 = type { ptr, ptr, ptr }

@.str = private unnamed_addr constant [111 x i8] c"generated/home/dtcxzyw/WorkSpace/Projects/compilers/llvm-opt-benchmark/bench/z3/z3/src/ast/sls/sls_bv_eval.cpp\00", align 1
@.str.23 = private unnamed_addr constant [67 x i8] c"Failed to verify: try_repair_rotate_left(a.bits(), val, a.bw - n)\0A\00", align 1

; Function Attrs: mustprogress nounwind uwtable
define linkonce_odr hidden noundef nonnull align 8 dereferenceable(8) ptr @_ZNK6vectorIPN3sls12bv_valuationELb0EjEixEj(ptr noundef nonnull align 8 dereferenceable(8) %0, i32 noundef %1) #5 comdat align 2 {
  %3 = alloca ptr, align 8
  %4 = alloca i32, align 4
  store ptr %0, ptr %3, align 8, !tbaa !389
  store i32 %1, ptr %4, align 4, !tbaa !97
  %5 = load ptr, ptr %3, align 8
  %6 = getelementptr inbounds nuw %class.vector.14, ptr %5, i32 0, i32 0
  %7 = load ptr, ptr %6, align 8, !tbaa !391
  %8 = load i32, ptr %4, align 4, !tbaa !97
  %9 = zext i32 %8 to i64
  %10 = getelementptr inbounds nuw ptr, ptr %7, i64 %9
  ret ptr %10
}

; Function Attrs: mustprogress uwtable
define linkonce_odr hidden noundef ptr @_ZNK17scoped_ptr_vectorIN3sls12bv_valuationEEixEj(ptr noundef nonnull align 8 dereferenceable(8) %0, i32 noundef %1) #4 comdat align 2 {
  %3 = alloca ptr, align 8
  %4 = alloca i32, align 4
  store ptr %0, ptr %3, align 8, !tbaa !108
  store i32 %1, ptr %4, align 4, !tbaa !97
  %5 = load ptr, ptr %3, align 8
  %6 = getelementptr inbounds nuw %class.scoped_ptr_vector, ptr %5, i32 0, i32 0
  %7 = load i32, ptr %4, align 4, !tbaa !97
  %8 = call noundef nonnull align 8 dereferenceable(8) ptr @_ZNK6vectorIPN3sls12bv_valuationELb0EjEixEj(ptr noundef nonnull align 8 dereferenceable(8) %6, i32 noundef %7)
  %9 = load ptr, ptr %8, align 8, !tbaa !122
  ret ptr %9
}

; Function Attrs: mustprogress nounwind uwtable
define linkonce_odr hidden noundef i32 @_ZNK3ast6get_idEv(ptr noundef nonnull align 4 dereferenceable(16) %0) #5 comdat align 2 {
  %2 = alloca ptr, align 8
  store ptr %0, ptr %2, align 8, !tbaa !129
  %3 = load ptr, ptr %2, align 8
  %4 = getelementptr inbounds nuw %class.ast, ptr %3, i32 0, i32 0
  %5 = load i32, ptr %4, align 4, !tbaa !137
  ret i32 %5
}

; Function Attrs: mustprogress nounwind uwtable
define linkonce_odr hidden noundef nonnull align 8 dereferenceable(20) ptr @_ZNK3sls12bv_valuation4bitsEv(ptr noundef nonnull align 8 dereferenceable(184) %0) #5 comdat align 2 {
  %2 = alloca ptr, align 8
  store ptr %0, ptr %2, align 8, !tbaa !122
  %3 = load ptr, ptr %2, align 8
  %4 = getelementptr inbounds nuw %"class.sls::bv_valuation", ptr %3, i32 0, i32 0
  ret ptr %4
}

; Function Attrs: mustprogress uwtable
define hidden noundef nonnull align 8 dereferenceable(184) ptr @_ZNK3sls7bv_eval4wvalEP4expr(ptr noundef nonnull align 8 dereferenceable(865) %0, ptr noundef %1) #4 align 2 {
  %3 = alloca ptr, align 8
  %4 = alloca ptr, align 8
  store ptr %0, ptr %3, align 8, !tbaa !3
  store ptr %1, ptr %4, align 8, !tbaa !119
  %5 = load ptr, ptr %3, align 8
  %6 = getelementptr inbounds nuw %"class.sls::bv_eval", ptr %5, i32 0, i32 15
  %7 = load ptr, ptr %4, align 8, !tbaa !119
  %8 = call noundef i32 @_ZNK3ast6get_idEv(ptr noundef nonnull align 4 dereferenceable(16) %7)
  %9 = call noundef ptr @_ZNK17scoped_ptr_vectorIN3sls12bv_valuationEEixEj(ptr noundef nonnull align 8 dereferenceable(8) %6, i32 noundef %8)
  ret ptr %9
}

; Function Attrs: mustprogress nounwind uwtable
define linkonce_odr hidden noundef ptr @_ZNK3app7get_argEj(ptr noundef nonnull align 8 dereferenceable(32) %0, i32 noundef %1) #5 comdat align 2 {
  %3 = alloca ptr, align 8
  %4 = alloca i32, align 4
  store ptr %0, ptr %3, align 8, !tbaa !120
  store i32 %1, ptr %4, align 4, !tbaa !97
  %5 = load ptr, ptr %3, align 8
  %6 = getelementptr inbounds nuw %class.app, ptr %5, i32 0, i32 4
  %7 = load i32, ptr %4, align 4, !tbaa !97
  %8 = zext i32 %7 to i64
  %9 = getelementptr inbounds nuw [0 x ptr], ptr %6, i64 0, i64 %8
  %10 = load ptr, ptr %9, align 8, !tbaa !119
  ret ptr %10
}

; Function Attrs: inlinehint mustprogress uwtable
define internal void @"_ZZNK3sls7bv_eval4evalEP4exprRNS_12bv_valuationEENK3$_1clEj"(ptr noundef nonnull align 8 dereferenceable(24) %0, i32 noundef %1) #7 align 2 {
  %3 = alloca ptr, align 8
  %4 = alloca i32, align 4
  %5 = alloca ptr, align 8
  store ptr %0, ptr %3, align 8, !tbaa !162
  store i32 %1, ptr %4, align 4, !tbaa !97
  %6 = load ptr, ptr %3, align 8
  %7 = getelementptr inbounds nuw %class.anon.83, ptr %6, i32 0, i32 0
  %8 = load ptr, ptr %7, align 8, !tbaa !206
  call void @llvm.lifetime.start.p0(i64 8, ptr %5) #3
  %9 = getelementptr inbounds nuw %class.anon.83, ptr %6, i32 0, i32 1
  %10 = load ptr, ptr %9, align 8, !tbaa !240
  %11 = load ptr, ptr %10, align 8, !tbaa !120
  %12 = call noundef ptr @_ZNK3app7get_argEj(ptr noundef nonnull align 8 dereferenceable(32) %11, i32 noundef 0)
  %13 = call noundef nonnull align 8 dereferenceable(184) ptr @_ZNK3sls7bv_eval4wvalEP4expr(ptr noundef nonnull align 8 dereferenceable(865) %8, ptr noundef %12)
  store ptr %13, ptr %5, align 8, !tbaa !122
  %14 = load ptr, ptr %5, align 8, !tbaa !122
  %15 = call noundef nonnull align 8 dereferenceable(20) ptr @_ZNK3sls12bv_valuation4bitsEv(ptr noundef nonnull align 8 dereferenceable(184) %14)
  %16 = getelementptr inbounds nuw %class.anon.83, ptr %6, i32 0, i32 2
  %17 = load ptr, ptr %16, align 8, !tbaa !241
  %18 = load ptr, ptr %5, align 8, !tbaa !122
  %19 = getelementptr inbounds nuw %"class.sls::bv_valuation", ptr %18, i32 0, i32 8
  %20 = load i32, ptr %19, align 8, !tbaa !124
  %21 = load i32, ptr %4, align 4, !tbaa !97
  %22 = sub i32 %20, %21
  %23 = call noundef zeroext i1 @_ZNK3sls7bv_eval22try_repair_rotate_leftERKNS_5bvectERNS_12bv_valuationEj(ptr noundef nonnull align 8 dereferenceable(865) %8, ptr noundef nonnull align 8 dereferenceable(20) %15, ptr noundef nonnull align 8 dereferenceable(184) %17, i32 noundef %22)
  br i1 %23, label %25, label %24

24:                                               ; preds = %2
  call void @_Z26notify_assertion_violationPKciS0_(ptr noundef @.str, i32 noundef 364, ptr noundef @.str.23)
  call void @_Z18invoke_exit_actionj(i32 noundef 114)
  br label %25

25:                                               ; preds = %24, %2
  call void @llvm.lifetime.end.p0(i64 8, ptr %5) #3
  ret void
}