; Function Attrs: inlinehint mustprogress uwtable
define internal fastcc void @"_ZZNK3sls7bv_eval4evalEP4exprRNS_12bv_valuationEENK3$_1clEj"(ptr noundef nonnull readonly align 8 captures(none) dereferenceable(24) %0, i32 noundef %1) unnamed_addr #8 align 2 {
  %3 = load ptr, ptr %0, align 8, !tbaa !180
  %4 = getelementptr inbounds nuw i8, ptr %0, i64 8
  %5 = load ptr, ptr %4, align 8, !tbaa !220
  %6 = load ptr, ptr %5, align 8, !tbaa !171
  %7 = getelementptr inbounds nuw i8, ptr %6, i64 32
  %8 = load ptr, ptr %7, align 8, !tbaa !147
  %9 = getelementptr inbounds nuw i8, ptr %3, i64 544
  %10 = load i32, ptr %8, align 4, !tbaa !124
  %11 = load ptr, ptr %9, align 8, !tbaa !125
  %12 = zext i32 %10 to i64
  %13 = getelementptr inbounds nuw ptr, ptr %11, i64 %12
  %14 = load ptr, ptr %13, align 8, !tbaa !126
  %15 = getelementptr inbounds nuw i8, ptr %0, i64 16
  %16 = load ptr, ptr %15, align 8, !tbaa !221
  %17 = getelementptr inbounds nuw i8, ptr %14, i64 152
  %18 = load i32, ptr %17, align 8, !tbaa !128
  %19 = sub i32 %18, %1
  %20 = tail call noundef zeroext i1 @_ZNK3sls7bv_eval22try_repair_rotate_leftERKNS_5bvectERNS_12bv_valuationEj(ptr noundef nonnull align 8 dereferenceable(865) %3, ptr noundef nonnull align 8 dereferenceable(20) %14, ptr noundef nonnull align 8 dereferenceable(184) %16, i32 noundef %19)
  br i1 %20, label %22, label %21

21:                                               ; preds = %2
  tail call void @_Z26notify_assertion_violationPKciS0_(ptr noundef nonnull @.str, i32 noundef 364, ptr noundef nonnull @.str.23)
  tail call void @_Z18invoke_exit_actionj(i32 noundef 114)
  br label %22

22:                                               ; preds = %21, %2
  ret void
}